; Function Attrs: mustprogress uwtable
define hidden noundef nonnull align 8 dereferenceable(8) ptr @_ZNK3sat8aig_cuts7displayERSoRKNS0_4nodeE(ptr nocapture noundef nonnull readonly align 8 dereferenceable(480) %this, ptr noundef nonnull returned align 8 dereferenceable(8) %out, ptr nocapture noundef nonnull readonly align 8 dereferenceable(24) %n) local_unnamed_addr #3 align 2 {
entry:
  %0 = load i8, ptr %n, align 8
  %1 = and i8 %0, 1
  %tobool.i.not = icmp eq i8 %1, 0
  %.str.33..str.34 = select i1 %tobool.i.not, ptr @.str.34, ptr @.str.33
  %call2 = tail call noundef nonnull align 8 dereferenceable(8) ptr @_ZStlsISt11char_traitsIcEERSt13basic_ostreamIcT_ES5_PKc(ptr noundef nonnull align 8 dereferenceable(8) %out, ptr noundef nonnull %.str.33..str.34)
  %m_op.i = getelementptr inbounds i8, ptr %n, i64 4
  %2 = load i32, ptr %m_op.i, align 4
  %3 = icmp ult i32 %2, 4
  br i1 %3, label %switch.lookup, label %sw.epilog

switch.lookup:                                    ; preds = %entry
  %4 = zext nneg i32 %2 to i64
  %switch.gep = getelementptr inbounds [4 x ptr], ptr @switch.table._ZNK3sat8aig_cuts7displayERSo, i64 0, i64 %4
  %switch.load = load ptr, ptr %switch.gep, align 8
  %call10 = tail call noundef nonnull align 8 dereferenceable(8) ptr @_ZStlsISt11char_traitsIcEERSt13basic_ostreamIcT_ES5_PKc(ptr noundef nonnull align 8 dereferenceable(8) %out, ptr noundef nonnull %switch.load)
  br label %sw.epilog

sw.epilog:                                        ; preds = %entry, %switch.lookup
  %m_size.i = getelementptr inbounds i8, ptr %n, i64 16
  %5 = load i32, ptr %m_size.i, align 8
  %cmp12.not = icmp eq i32 %5, 0
  br i1 %cmp12.not, label %for.end, label %for.body.lr.ph

for.body.lr.ph:                                   ; preds = %sw.epilog
  %m_literals = getelementptr inbounds i8, ptr %this, i64 32
  %m_offset.i = getelementptr inbounds i8, ptr %n, i64 20
  br label %for.body

for.body:                                         ; preds = %for.body.lr.ph, %_ZN3satlsERSoNS_7literalE.exit
  %i.013 = phi i32 [ 0, %for.body.lr.ph ], [ %inc, %_ZN3satlsERSoNS_7literalE.exit ]
  %6 = load i32, ptr %m_offset.i, align 4
  %add = add i32 %6, %i.013
  %7 = load ptr, ptr %m_literals, align 8
  %idxprom.i = zext i32 %add to i64
  %arrayidx.i = getelementptr inbounds %"class.sat::literal", ptr %7, i64 %idxprom.i
  %agg.tmp.sroa.0.0.copyload = load i32, ptr %arrayidx.i, align 4
  %.b = load i1, ptr @_ZN3satL12null_literalE.0, align 4
  %8 = select i1 %.b, i32 -2, i32 0
  %cmp.i.i = icmp eq i32 %8, %agg.tmp.sroa.0.0.copyload
  br i1 %cmp.i.i, label %if.then.i, label %if.else.i

if.then.i:                                        ; preds = %for.body
  %call1.i = tail call noundef nonnull align 8 dereferenceable(8) ptr @_ZStlsISt11char_traitsIcEERSt13basic_ostreamIcT_ES5_PKc(ptr noundef nonnull align 8 dereferenceable(8) %out, ptr noundef nonnull @.str.39)
  br label %_ZN3satlsERSoNS_7literalE.exit

if.else.i:                                        ; preds = %for.body
  %9 = and i32 %agg.tmp.sroa.0.0.copyload, 1
  %tobool.i.not.i = icmp eq i32 %9, 0
  %cond.i = select i1 %tobool.i.not.i, ptr @.str.41, ptr @.str.40
  %call3.i = tail call noundef nonnull align 8 dereferenceable(8) ptr @_ZStlsISt11char_traitsIcEERSt13basic_ostreamIcT_ES5_PKc(ptr noundef nonnull align 8 dereferenceable(8) %out, ptr noundef nonnull %cond.i)
  %shr.i.i = lshr i32 %agg.tmp.sroa.0.0.copyload, 1
  %call5.i = tail call noundef nonnull align 8 dereferenceable(8) ptr @_ZNSolsEj(ptr noundef nonnull align 8 dereferenceable(8) %call3.i, i32 noundef %shr.i.i)
  br label %_ZN3satlsERSoNS_7literalE.exit

_ZN3satlsERSoNS_7literalE.exit:                   ; preds = %if.then.i, %if.else.i
  %call15 = tail call noundef nonnull align 8 dereferenceable(8) ptr @_ZStlsISt11char_traitsIcEERSt13basic_ostreamIcT_ES5_PKc(ptr noundef nonnull align 8 dereferenceable(8) %out, ptr noundef nonnull @.str.5)
  %inc = add nuw i32 %i.013, 1
  %10 = load i32, ptr %m_size.i, align 8
  %cmp = icmp ult i32 %inc, %10
  br i1 %cmp, label %for.body, label %for.end, !llvm.loop !24

for.end:                                          ; preds = %_ZN3satlsERSoNS_7literalE.exit, %sw.epilog
  ret ptr %out
}